target datalayout = "e-m:e-p270:32:32-p271:32:32-p272:64:64-i64:64-i128:128-f80:128-n8:16:32:64-S128"
target triple = "x86_64-pc-linux-gnu"

%struct.stbtt_vertex = type { i16, i16, i16, i16, i16, i16, i8, i8 }
%struct.stbtt__csctx = type { i32, i32, float, float, float, float, i32, i32, i32, i32, ptr, i32 }

; Function Attrs: nounwind uwtable
define void @stbtt_setvertex(ptr noundef %0, i8 noundef zeroext %1, i32 noundef %2, i32 noundef %3, i32 noundef %4, i32 noundef %5) #0 {
  %7 = alloca ptr, align 8
  %8 = alloca i8, align 1
  %9 = alloca i32, align 4
  %10 = alloca i32, align 4
  %11 = alloca i32, align 4
  %12 = alloca i32, align 4
  store ptr %0, ptr %7, align 8, !tbaa !3
  store i8 %1, ptr %8, align 1, !tbaa !13
  store i32 %2, ptr %9, align 4, !tbaa !14
  store i32 %3, ptr %10, align 4, !tbaa !14
  store i32 %4, ptr %11, align 4, !tbaa !14
  store i32 %5, ptr %12, align 4, !tbaa !14
  %13 = load i8, ptr %8, align 1, !tbaa !13
  %14 = load ptr, ptr %7, align 8, !tbaa !3
  %15 = getelementptr inbounds nuw %struct.stbtt_vertex, ptr %14, i32 0, i32 6
  store i8 %13, ptr %15, align 2, !tbaa !50
  %16 = load i32, ptr %9, align 4, !tbaa !14
  %17 = trunc i32 %16 to i16
  %18 = load ptr, ptr %7, align 8, !tbaa !3
  %19 = getelementptr inbounds nuw %struct.stbtt_vertex, ptr %18, i32 0, i32 0
  store i16 %17, ptr %19, align 2, !tbaa !52
  %20 = load i32, ptr %10, align 4, !tbaa !14
  %21 = trunc i32 %20 to i16
  %22 = load ptr, ptr %7, align 8, !tbaa !3
  %23 = getelementptr inbounds nuw %struct.stbtt_vertex, ptr %22, i32 0, i32 1
  store i16 %21, ptr %23, align 2, !tbaa !53
  %24 = load i32, ptr %11, align 4, !tbaa !14
  %25 = trunc i32 %24 to i16
  %26 = load ptr, ptr %7, align 8, !tbaa !3
  %27 = getelementptr inbounds nuw %struct.stbtt_vertex, ptr %26, i32 0, i32 2
  store i16 %25, ptr %27, align 2, !tbaa !54
  %28 = load i32, ptr %12, align 4, !tbaa !14
  %29 = trunc i32 %28 to i16
  %30 = load ptr, ptr %7, align 8, !tbaa !3
  %31 = getelementptr inbounds nuw %struct.stbtt_vertex, ptr %30, i32 0, i32 3
  store i16 %29, ptr %31, align 2, !tbaa !55
  ret void
}

; Function Attrs: nounwind uwtable
define void @stbtt__track_vertex(ptr noundef %0, i32 noundef %1, i32 noundef %2) #0 {
  %4 = alloca ptr, align 8
  %5 = alloca i32, align 4
  %6 = alloca i32, align 4
  store ptr %0, ptr %4, align 8, !tbaa !3
  store i32 %1, ptr %5, align 4, !tbaa !14
  store i32 %2, ptr %6, align 4, !tbaa !14
  %7 = load i32, ptr %5, align 4, !tbaa !14
  %8 = load ptr, ptr %4, align 8, !tbaa !3
  %9 = getelementptr inbounds nuw %struct.stbtt__csctx, ptr %8, i32 0, i32 7
  %10 = load i32, ptr %9, align 4, !tbaa !60
  %11 = icmp sgt i32 %7, %10
  br i1 %11, label %17, label %12

12:                                               ; preds = %3
  %13 = load ptr, ptr %4, align 8, !tbaa !3
  %14 = getelementptr inbounds nuw %struct.stbtt__csctx, ptr %13, i32 0, i32 1
  %15 = load i32, ptr %14, align 4, !tbaa !70
  %16 = icmp ne i32 %15, 0
  br i1 %16, label %21, label %17

17:                                               ; preds = %12, %3
  %18 = load i32, ptr %5, align 4, !tbaa !14
  %19 = load ptr, ptr %4, align 8, !tbaa !3
  %20 = getelementptr inbounds nuw %struct.stbtt__csctx, ptr %19, i32 0, i32 7
  store i32 %18, ptr %20, align 4, !tbaa !60
  br label %21

21:                                               ; preds = %17, %12
  %22 = load i32, ptr %6, align 4, !tbaa !14
  %23 = load ptr, ptr %4, align 8, !tbaa !3
  %24 = getelementptr inbounds nuw %struct.stbtt__csctx, ptr %23, i32 0, i32 9
  %25 = load i32, ptr %24, align 4, !tbaa !61
  %26 = icmp sgt i32 %22, %25
  br i1 %26, label %32, label %27

27:                                               ; preds = %21
  %28 = load ptr, ptr %4, align 8, !tbaa !3
  %29 = getelementptr inbounds nuw %struct.stbtt__csctx, ptr %28, i32 0, i32 1
  %30 = load i32, ptr %29, align 4, !tbaa !70
  %31 = icmp ne i32 %30, 0
  br i1 %31, label %36, label %32

32:                                               ; preds = %27, %21
  %33 = load i32, ptr %6, align 4, !tbaa !14
  %34 = load ptr, ptr %4, align 8, !tbaa !3
  %35 = getelementptr inbounds nuw %struct.stbtt__csctx, ptr %34, i32 0, i32 9
  store i32 %33, ptr %35, align 4, !tbaa !61
  br label %36

36:                                               ; preds = %32, %27
  %37 = load i32, ptr %5, align 4, !tbaa !14
  %38 = load ptr, ptr %4, align 8, !tbaa !3
  %39 = getelementptr inbounds nuw %struct.stbtt__csctx, ptr %38, i32 0, i32 6
  %40 = load i32, ptr %39, align 8, !tbaa !56
  %41 = icmp slt i32 %37, %40
  br i1 %41, label %47, label %42

42:                                               ; preds = %36
  %43 = load ptr, ptr %4, align 8, !tbaa !3
  %44 = getelementptr inbounds nuw %struct.stbtt__csctx, ptr %43, i32 0, i32 1
  %45 = load i32, ptr %44, align 4, !tbaa !70
  %46 = icmp ne i32 %45, 0
  br i1 %46, label %51, label %47

47:                                               ; preds = %42, %36
  %48 = load i32, ptr %5, align 4, !tbaa !14
  %49 = load ptr, ptr %4, align 8, !tbaa !3
  %50 = getelementptr inbounds nuw %struct.stbtt__csctx, ptr %49, i32 0, i32 6
  store i32 %48, ptr %50, align 8, !tbaa !56
  br label %51

51:                                               ; preds = %47, %42
  %52 = load i32, ptr %6, align 4, !tbaa !14
  %53 = load ptr, ptr %4, align 8, !tbaa !3
  %54 = getelementptr inbounds nuw %struct.stbtt__csctx, ptr %53, i32 0, i32 8
  %55 = load i32, ptr %54, align 8, !tbaa !59
  %56 = icmp slt i32 %52, %55
  br i1 %56, label %62, label %57

57:                                               ; preds = %51
  %58 = load ptr, ptr %4, align 8, !tbaa !3
  %59 = getelementptr inbounds nuw %struct.stbtt__csctx, ptr %58, i32 0, i32 1
  %60 = load i32, ptr %59, align 4, !tbaa !70
  %61 = icmp ne i32 %60, 0
  br i1 %61, label %66, label %62

62:                                               ; preds = %57, %51
  %63 = load i32, ptr %6, align 4, !tbaa !14
  %64 = load ptr, ptr %4, align 8, !tbaa !3
  %65 = getelementptr inbounds nuw %struct.stbtt__csctx, ptr %64, i32 0, i32 8
  store i32 %63, ptr %65, align 8, !tbaa !59
  br label %66

66:                                               ; preds = %62, %57
  %67 = load ptr, ptr %4, align 8, !tbaa !3
  %68 = getelementptr inbounds nuw %struct.stbtt__csctx, ptr %67, i32 0, i32 1
  store i32 1, ptr %68, align 4, !tbaa !70
  ret void
}

; Function Attrs: nounwind uwtable
define void @stbtt__csctx_v(ptr noundef %0, i8 noundef zeroext %1, i32 noundef %2, i32 noundef %3, i32 noundef %4, i32 noundef %5, i32 noundef %6, i32 noundef %7) #0 {
  %9 = alloca ptr, align 8
  %10 = alloca i8, align 1
  %11 = alloca i32, align 4
  %12 = alloca i32, align 4
  %13 = alloca i32, align 4
  %14 = alloca i32, align 4
  %15 = alloca i32, align 4
  %16 = alloca i32, align 4
  store ptr %0, ptr %9, align 8, !tbaa !3
  store i8 %1, ptr %10, align 1, !tbaa !13
  store i32 %2, ptr %11, align 4, !tbaa !14
  store i32 %3, ptr %12, align 4, !tbaa !14
  store i32 %4, ptr %13, align 4, !tbaa !14
  store i32 %5, ptr %14, align 4, !tbaa !14
  store i32 %6, ptr %15, align 4, !tbaa !14
  store i32 %7, ptr %16, align 4, !tbaa !14
  %17 = load ptr, ptr %9, align 8, !tbaa !3
  %18 = getelementptr inbounds nuw %struct.stbtt__csctx, ptr %17, i32 0, i32 0
  %19 = load i32, ptr %18, align 8, !tbaa !71
  %20 = icmp ne i32 %19, 0
  br i1 %20, label %21, label %36

21:                                               ; preds = %8
  %22 = load ptr, ptr %9, align 8, !tbaa !3
  %23 = load i32, ptr %11, align 4, !tbaa !14
  %24 = load i32, ptr %12, align 4, !tbaa !14
  call void @stbtt__track_vertex(ptr noundef %22, i32 noundef %23, i32 noundef %24)
  %25 = load i8, ptr %10, align 1, !tbaa !13
  %26 = zext i8 %25 to i32
  %27 = icmp eq i32 %26, 4
  br i1 %27, label %28, label %35

28:                                               ; preds = %21
  %29 = load ptr, ptr %9, align 8, !tbaa !3
  %30 = load i32, ptr %13, align 4, !tbaa !14
  %31 = load i32, ptr %14, align 4, !tbaa !14
  call void @stbtt__track_vertex(ptr noundef %29, i32 noundef %30, i32 noundef %31)
  %32 = load ptr, ptr %9, align 8, !tbaa !3
  %33 = load i32, ptr %15, align 4, !tbaa !14
  %34 = load i32, ptr %16, align 4, !tbaa !14
  call void @stbtt__track_vertex(ptr noundef %32, i32 noundef %33, i32 noundef %34)
  br label %35

35:                                               ; preds = %28, %21
  br label %72

36:                                               ; preds = %8
  %37 = load ptr, ptr %9, align 8, !tbaa !3
  %38 = getelementptr inbounds nuw %struct.stbtt__csctx, ptr %37, i32 0, i32 10
  %39 = load ptr, ptr %38, align 8, !tbaa !72
  %40 = load ptr, ptr %9, align 8, !tbaa !3
  %41 = getelementptr inbounds nuw %struct.stbtt__csctx, ptr %40, i32 0, i32 11
  %42 = load i32, ptr %41, align 8, !tbaa !62
  %43 = sext i32 %42 to i64
  %44 = getelementptr inbounds %struct.stbtt_vertex, ptr %39, i64 %43
  %45 = load i8, ptr %10, align 1, !tbaa !13
  %46 = load i32, ptr %11, align 4, !tbaa !14
  %47 = load i32, ptr %12, align 4, !tbaa !14
  %48 = load i32, ptr %13, align 4, !tbaa !14
  %49 = load i32, ptr %14, align 4, !tbaa !14
  call void @stbtt_setvertex(ptr noundef %44, i8 noundef zeroext %45, i32 noundef %46, i32 noundef %47, i32 noundef %48, i32 noundef %49)
  %50 = load i32, ptr %15, align 4, !tbaa !14
  %51 = trunc i32 %50 to i16
  %52 = load ptr, ptr %9, align 8, !tbaa !3
  %53 = getelementptr inbounds nuw %struct.stbtt__csctx, ptr %52, i32 0, i32 10
  %54 = load ptr, ptr %53, align 8, !tbaa !72
  %55 = load ptr, ptr %9, align 8, !tbaa !3
  %56 = getelementptr inbounds nuw %struct.stbtt__csctx, ptr %55, i32 0, i32 11
  %57 = load i32, ptr %56, align 8, !tbaa !62
  %58 = sext i32 %57 to i64
  %59 = getelementptr inbounds %struct.stbtt_vertex, ptr %54, i64 %58
  %60 = getelementptr inbounds nuw %struct.stbtt_vertex, ptr %59, i32 0, i32 4
  store i16 %51, ptr %60, align 2, !tbaa !73
  %61 = load i32, ptr %16, align 4, !tbaa !14
  %62 = trunc i32 %61 to i16
  %63 = load ptr, ptr %9, align 8, !tbaa !3
  %64 = getelementptr inbounds nuw %struct.stbtt__csctx, ptr %63, i32 0, i32 10
  %65 = load ptr, ptr %64, align 8, !tbaa !72
  %66 = load ptr, ptr %9, align 8, !tbaa !3
  %67 = getelementptr inbounds nuw %struct.stbtt__csctx, ptr %66, i32 0, i32 11
  %68 = load i32, ptr %67, align 8, !tbaa !62
  %69 = sext i32 %68 to i64
  %70 = getelementptr inbounds %struct.stbtt_vertex, ptr %65, i64 %69
  %71 = getelementptr inbounds nuw %struct.stbtt_vertex, ptr %70, i32 0, i32 5
  store i16 %62, ptr %71, align 2, !tbaa !74
  br label %72

72:                                               ; preds = %36, %35
  %73 = load ptr, ptr %9, align 8, !tbaa !3
  %74 = getelementptr inbounds nuw %struct.stbtt__csctx, ptr %73, i32 0, i32 11
  %75 = load i32, ptr %74, align 8, !tbaa !62
  %76 = add nsw i32 %75, 1
  store i32 %76, ptr %74, align 8, !tbaa !62
  ret void
}

; Function Attrs: nounwind uwtable
define void @stbtt__csctx_close_shape(ptr noundef %0) #0 {
  %2 = alloca ptr, align 8
  store ptr %0, ptr %2, align 8, !tbaa !3
  %3 = load ptr, ptr %2, align 8, !tbaa !3
  %4 = getelementptr inbounds nuw %struct.stbtt__csctx, ptr %3, i32 0, i32 2
  %5 = load float, ptr %4, align 8, !tbaa !75
  %6 = load ptr, ptr %2, align 8, !tbaa !3
  %7 = getelementptr inbounds nuw %struct.stbtt__csctx, ptr %6, i32 0, i32 4
  %8 = load float, ptr %7, align 8, !tbaa !76
  %9 = fcmp une float %5, %8
  br i1 %9, label %18, label %10

10:                                               ; preds = %1
  %11 = load ptr, ptr %2, align 8, !tbaa !3
  %12 = getelementptr inbounds nuw %struct.stbtt__csctx, ptr %11, i32 0, i32 3
  %13 = load float, ptr %12, align 4, !tbaa !77
  %14 = load ptr, ptr %2, align 8, !tbaa !3
  %15 = getelementptr inbounds nuw %struct.stbtt__csctx, ptr %14, i32 0, i32 5
  %16 = load float, ptr %15, align 4, !tbaa !78
  %17 = fcmp une float %13, %16
  br i1 %17, label %18, label %28

18:                                               ; preds = %10, %1
  %19 = load ptr, ptr %2, align 8, !tbaa !3
  %20 = load ptr, ptr %2, align 8, !tbaa !3
  %21 = getelementptr inbounds nuw %struct.stbtt__csctx, ptr %20, i32 0, i32 2
  %22 = load float, ptr %21, align 8, !tbaa !75
  %23 = fptosi float %22 to i32
  %24 = load ptr, ptr %2, align 8, !tbaa !3
  %25 = getelementptr inbounds nuw %struct.stbtt__csctx, ptr %24, i32 0, i32 3
  %26 = load float, ptr %25, align 4, !tbaa !77
  %27 = fptosi float %26 to i32
  call void @stbtt__csctx_v(ptr noundef %19, i8 noundef zeroext 2, i32 noundef %23, i32 noundef %27, i32 noundef 0, i32 noundef 0, i32 noundef 0, i32 noundef 0)
  br label %28

28:                                               ; preds = %18, %10
  ret void
}

; Function Attrs: nounwind uwtable
define void @stbtt__csctx_rmove_to(ptr noundef %0, float noundef %1, float noundef %2) #0 {
  %4 = alloca ptr, align 8
  %5 = alloca float, align 4
  %6 = alloca float, align 4
  store ptr %0, ptr %4, align 8, !tbaa !3
  store float %1, ptr %5, align 4, !tbaa !67
  store float %2, ptr %6, align 4, !tbaa !67
  %7 = load ptr, ptr %4, align 8, !tbaa !3
  call void @stbtt__csctx_close_shape(ptr noundef %7)
  %8 = load ptr, ptr %4, align 8, !tbaa !3
  %9 = getelementptr inbounds nuw %struct.stbtt__csctx, ptr %8, i32 0, i32 4
  %10 = load float, ptr %9, align 8, !tbaa !76
  %11 = load float, ptr %5, align 4, !tbaa !67
  %12 = fadd float %10, %11
  %13 = load ptr, ptr %4, align 8, !tbaa !3
  %14 = getelementptr inbounds nuw %struct.stbtt__csctx, ptr %13, i32 0, i32 4
  store float %12, ptr %14, align 8, !tbaa !76
  %15 = load ptr, ptr %4, align 8, !tbaa !3
  %16 = getelementptr inbounds nuw %struct.stbtt__csctx, ptr %15, i32 0, i32 2
  store float %12, ptr %16, align 8, !tbaa !75
  %17 = load ptr, ptr %4, align 8, !tbaa !3
  %18 = getelementptr inbounds nuw %struct.stbtt__csctx, ptr %17, i32 0, i32 5
  %19 = load float, ptr %18, align 4, !tbaa !78
  %20 = load float, ptr %6, align 4, !tbaa !67
  %21 = fadd float %19, %20
  %22 = load ptr, ptr %4, align 8, !tbaa !3
  %23 = getelementptr inbounds nuw %struct.stbtt__csctx, ptr %22, i32 0, i32 5
  store float %21, ptr %23, align 4, !tbaa !78
  %24 = load ptr, ptr %4, align 8, !tbaa !3
  %25 = getelementptr inbounds nuw %struct.stbtt__csctx, ptr %24, i32 0, i32 3
  store float %21, ptr %25, align 4, !tbaa !77
  %26 = load ptr, ptr %4, align 8, !tbaa !3
  %27 = load ptr, ptr %4, align 8, !tbaa !3
  %28 = getelementptr inbounds nuw %struct.stbtt__csctx, ptr %27, i32 0, i32 4
  %29 = load float, ptr %28, align 8, !tbaa !76
  %30 = fptosi float %29 to i32
  %31 = load ptr, ptr %4, align 8, !tbaa !3
  %32 = getelementptr inbounds nuw %struct.stbtt__csctx, ptr %31, i32 0, i32 5
  %33 = load float, ptr %32, align 4, !tbaa !78
  %34 = fptosi float %33 to i32
  call void @stbtt__csctx_v(ptr noundef %26, i8 noundef zeroext 1, i32 noundef %30, i32 noundef %34, i32 noundef 0, i32 noundef 0, i32 noundef 0, i32 noundef 0)
  ret void
}