; Function Attrs: mustprogress nofree norecurse nosync nounwind willreturn memory(write, argmem: readwrite, inaccessiblemem: none) uwtable
define void @stbtt__csctx_rmove_to(ptr noundef captures(none) %0, float noundef %1, float noundef %2) local_unnamed_addr #18 {
  %4 = getelementptr inbounds nuw i8, ptr %0, i64 8
  %5 = load float, ptr %4, align 8, !tbaa !66
  %6 = getelementptr inbounds nuw i8, ptr %0, i64 16
  %7 = load float, ptr %6, align 8, !tbaa !67
  %8 = fcmp une float %5, %7
  %.phi.trans.insert.i = getelementptr inbounds nuw i8, ptr %0, i64 12
  %.pre.i = load float, ptr %.phi.trans.insert.i, align 4, !tbaa !68
  br i1 %8, label %._crit_edge.i, label %9

9:                                                ; preds = %3
  %10 = getelementptr inbounds nuw i8, ptr %0, i64 20
  %11 = load float, ptr %10, align 4, !tbaa !69
  %12 = fcmp une float %.pre.i, %11
  br i1 %12, label %._crit_edge.i, label %stbtt__csctx_close_shape.exit

._crit_edge.i:                                    ; preds = %9, %3
  %13 = fptosi float %5 to i32
  %14 = fptosi float %.pre.i to i32
  %15 = load i32, ptr %0, align 8, !tbaa !63
  %.not.i.i = icmp eq i32 %15, 0
  br i1 %.not.i.i, label %49, label %16

16:                                               ; preds = %._crit_edge.i
  %17 = getelementptr inbounds nuw i8, ptr %0, i64 28
  %18 = load i32, ptr %17, align 4, !tbaa !58
  %19 = icmp slt i32 %18, %13
  br i1 %19, label %23, label %20

20:                                               ; preds = %16
  %21 = getelementptr inbounds nuw i8, ptr %0, i64 4
  %22 = load i32, ptr %21, align 4, !tbaa !59
  %.not.i.i.i = icmp eq i32 %22, 0
  br i1 %.not.i.i.i, label %23, label %24

23:                                               ; preds = %20, %16
  store i32 %13, ptr %17, align 4, !tbaa !58
  br label %24

24:                                               ; preds = %23, %20
  %25 = getelementptr inbounds nuw i8, ptr %0, i64 36
  %26 = load i32, ptr %25, align 4, !tbaa !60
  %27 = icmp slt i32 %26, %14
  br i1 %27, label %31, label %28

28:                                               ; preds = %24
  %29 = getelementptr inbounds nuw i8, ptr %0, i64 4
  %30 = load i32, ptr %29, align 4, !tbaa !59
  %.not20.i.i.i = icmp eq i32 %30, 0
  br i1 %.not20.i.i.i, label %31, label %32

31:                                               ; preds = %28, %24
  store i32 %14, ptr %25, align 4, !tbaa !60
  br label %32

32:                                               ; preds = %31, %28
  %33 = getelementptr inbounds nuw i8, ptr %0, i64 24
  %34 = load i32, ptr %33, align 8, !tbaa !61
  %35 = icmp sgt i32 %34, %13
  br i1 %35, label %39, label %36

36:                                               ; preds = %32
  %37 = getelementptr inbounds nuw i8, ptr %0, i64 4
  %38 = load i32, ptr %37, align 4, !tbaa !59
  %.not21.i.i.i = icmp eq i32 %38, 0
  br i1 %.not21.i.i.i, label %39, label %40

39:                                               ; preds = %36, %32
  store i32 %13, ptr %33, align 8, !tbaa !61
  br label %40

40:                                               ; preds = %39, %36
  %41 = getelementptr inbounds nuw i8, ptr %0, i64 32
  %42 = load i32, ptr %41, align 8, !tbaa !62
  %43 = icmp sgt i32 %42, %14
  br i1 %43, label %47, label %44

44:                                               ; preds = %40
  %45 = getelementptr inbounds nuw i8, ptr %0, i64 4
  %46 = load i32, ptr %45, align 4, !tbaa !59
  %.not22.i.i.i = icmp eq i32 %46, 0
  br i1 %.not22.i.i.i, label %47, label %stbtt__track_vertex.exit.i.i

47:                                               ; preds = %44, %40
  store i32 %14, ptr %41, align 8, !tbaa !62
  br label %stbtt__track_vertex.exit.i.i

stbtt__track_vertex.exit.i.i:                     ; preds = %47, %44
  %48 = getelementptr inbounds nuw i8, ptr %0, i64 4
  store i32 1, ptr %48, align 4, !tbaa !59
  %.phi.trans.insert7.i = getelementptr inbounds nuw i8, ptr %0, i64 48
  %.pre8.i = load i32, ptr %.phi.trans.insert7.i, align 8, !tbaa !40
  br label %stbtt__csctx_v.exit.i

49:                                               ; preds = %._crit_edge.i
  %50 = getelementptr inbounds nuw i8, ptr %0, i64 40
  %51 = load ptr, ptr %50, align 8, !tbaa !44
  %52 = getelementptr inbounds nuw i8, ptr %0, i64 48
  %53 = load i32, ptr %52, align 8, !tbaa !40
  %54 = sext i32 %53 to i64
  %55 = getelementptr inbounds %struct.stbtt_vertex, ptr %51, i64 %54
  %56 = getelementptr inbounds nuw i8, ptr %55, i64 12
  store i8 2, ptr %56, align 2, !tbaa !45
  %57 = trunc i32 %13 to i16
  store i16 %57, ptr %55, align 2, !tbaa !48
  %58 = trunc i32 %14 to i16
  %59 = getelementptr inbounds nuw i8, ptr %55, i64 2
  store i16 %58, ptr %59, align 2, !tbaa !49
  %60 = getelementptr inbounds nuw i8, ptr %55, i64 4
  store i64 0, ptr %60, align 2
  %.pre.pre = load float, ptr %6, align 8, !tbaa !67
  br label %stbtt__csctx_v.exit.i

stbtt__csctx_v.exit.i:                            ; preds = %49, %stbtt__track_vertex.exit.i.i
  %.pre = phi float [ %7, %stbtt__track_vertex.exit.i.i ], [ %.pre.pre, %49 ]
  %61 = phi i32 [ %.pre8.i, %stbtt__track_vertex.exit.i.i ], [ %53, %49 ]
  %62 = getelementptr inbounds nuw i8, ptr %0, i64 48
  %63 = add nsw i32 %61, 1
  store i32 %63, ptr %62, align 8, !tbaa !40
  %.phi.trans.insert = getelementptr inbounds nuw i8, ptr %0, i64 20
  %.pre13 = load float, ptr %.phi.trans.insert, align 4, !tbaa !69
  br label %stbtt__csctx_close_shape.exit

stbtt__csctx_close_shape.exit:                    ; preds = %9, %stbtt__csctx_v.exit.i
  %64 = phi float [ %11, %9 ], [ %.pre13, %stbtt__csctx_v.exit.i ]
  %65 = phi float [ %7, %9 ], [ %.pre, %stbtt__csctx_v.exit.i ]
  %66 = fadd float %1, %65
  store float %66, ptr %6, align 8, !tbaa !67
  store float %66, ptr %4, align 8, !tbaa !66
  %67 = getelementptr inbounds nuw i8, ptr %0, i64 20
  %68 = fadd float %2, %64
  store float %68, ptr %67, align 4, !tbaa !69
  store float %68, ptr %.phi.trans.insert.i, align 4, !tbaa !68
  %69 = fptosi float %66 to i32
  %70 = fptosi float %68 to i32
  %71 = load i32, ptr %0, align 8, !tbaa !63
  %.not.i = icmp eq i32 %71, 0
  br i1 %.not.i, label %105, label %72

72:                                               ; preds = %stbtt__csctx_close_shape.exit
  %73 = getelementptr inbounds nuw i8, ptr %0, i64 28
  %74 = load i32, ptr %73, align 4, !tbaa !58
  %75 = icmp slt i32 %74, %69
  br i1 %75, label %79, label %76

76:                                               ; preds = %72
  %77 = getelementptr inbounds nuw i8, ptr %0, i64 4
  %78 = load i32, ptr %77, align 4, !tbaa !59
  %.not.i.i12 = icmp eq i32 %78, 0
  br i1 %.not.i.i12, label %79, label %80

79:                                               ; preds = %76, %72
  store i32 %69, ptr %73, align 4, !tbaa !58
  br label %80

80:                                               ; preds = %79, %76
  %81 = getelementptr inbounds nuw i8, ptr %0, i64 36
  %82 = load i32, ptr %81, align 4, !tbaa !60
  %83 = icmp slt i32 %82, %70
  br i1 %83, label %87, label %84

84:                                               ; preds = %80
  %85 = getelementptr inbounds nuw i8, ptr %0, i64 4
  %86 = load i32, ptr %85, align 4, !tbaa !59
  %.not20.i.i = icmp eq i32 %86, 0
  br i1 %.not20.i.i, label %87, label %88

87:                                               ; preds = %84, %80
  store i32 %70, ptr %81, align 4, !tbaa !60
  br label %88

88:                                               ; preds = %87, %84
  %89 = getelementptr inbounds nuw i8, ptr %0, i64 24
  %90 = load i32, ptr %89, align 8, !tbaa !61
  %91 = icmp sgt i32 %90, %69
  br i1 %91, label %95, label %92

92:                                               ; preds = %88
  %93 = getelementptr inbounds nuw i8, ptr %0, i64 4
  %94 = load i32, ptr %93, align 4, !tbaa !59
  %.not21.i.i = icmp eq i32 %94, 0
  br i1 %.not21.i.i, label %95, label %96

95:                                               ; preds = %92, %88
  store i32 %69, ptr %89, align 8, !tbaa !61
  br label %96

96:                                               ; preds = %95, %92
  %97 = getelementptr inbounds nuw i8, ptr %0, i64 32
  %98 = load i32, ptr %97, align 8, !tbaa !62
  %99 = icmp sgt i32 %98, %70
  br i1 %99, label %103, label %100

100:                                              ; preds = %96
  %101 = getelementptr inbounds nuw i8, ptr %0, i64 4
  %102 = load i32, ptr %101, align 4, !tbaa !59
  %.not22.i.i = icmp eq i32 %102, 0
  br i1 %.not22.i.i, label %103, label %stbtt__track_vertex.exit.i

103:                                              ; preds = %100, %96
  store i32 %70, ptr %97, align 8, !tbaa !62
  br label %stbtt__track_vertex.exit.i

stbtt__track_vertex.exit.i:                       ; preds = %103, %100
  %104 = getelementptr inbounds nuw i8, ptr %0, i64 4
  store i32 1, ptr %104, align 4, !tbaa !59
  %.phi.trans.insert14 = getelementptr inbounds nuw i8, ptr %0, i64 48
  %.pre15 = load i32, ptr %.phi.trans.insert14, align 8, !tbaa !40
  br label %stbtt__csctx_v.exit

105:                                              ; preds = %stbtt__csctx_close_shape.exit
  %106 = getelementptr inbounds nuw i8, ptr %0, i64 40
  %107 = load ptr, ptr %106, align 8, !tbaa !44
  %108 = getelementptr inbounds nuw i8, ptr %0, i64 48
  %109 = load i32, ptr %108, align 8, !tbaa !40
  %110 = sext i32 %109 to i64
  %111 = getelementptr inbounds %struct.stbtt_vertex, ptr %107, i64 %110
  %112 = getelementptr inbounds nuw i8, ptr %111, i64 12
  store i8 1, ptr %112, align 2, !tbaa !45
  %113 = trunc i32 %69 to i16
  store i16 %113, ptr %111, align 2, !tbaa !48
  %114 = trunc i32 %70 to i16
  %115 = getelementptr inbounds nuw i8, ptr %111, i64 2
  store i16 %114, ptr %115, align 2, !tbaa !49
  %116 = getelementptr inbounds nuw i8, ptr %111, i64 4
  store i64 0, ptr %116, align 2
  br label %stbtt__csctx_v.exit

stbtt__csctx_v.exit:                              ; preds = %stbtt__track_vertex.exit.i, %105
  %117 = phi i32 [ %.pre15, %stbtt__track_vertex.exit.i ], [ %109, %105 ]
  %118 = getelementptr inbounds nuw i8, ptr %0, i64 48
  %119 = add nsw i32 %117, 1
  store i32 %119, ptr %118, align 8, !tbaa !40
  ret void
}